; Function Attrs: nofree nounwind uwtable
define noalias ptr @av_calloc(i64 noundef %0, i64 noundef %1) local_unnamed_addr #1 {
  %3 = alloca ptr, align 8
  %4 = alloca ptr, align 8
  %5 = tail call { i64, i1 } @llvm.umul.with.overflow.i64(i64 %0, i64 %1)
  %6 = extractvalue { i64, i1 } %5, 1
  br i1 %6, label %av_mallocz.exit, label %7

7:                                                ; preds = %2
  %8 = extractvalue { i64, i1 } %5, 0
  call void @llvm.lifetime.start.p0(i64 8, ptr nonnull %4) #21
  store ptr null, ptr %4, align 8, !tbaa !4
  %9 = load atomic i64, ptr @max_alloc_size monotonic, align 8
  %10 = icmp ugt i64 %8, %9
  br i1 %10, label %av_malloc.exit.thread.i, label %11

11:                                               ; preds = %7
  %.not8.i.i = icmp eq i64 %8, 0
  br i1 %.not8.i.i, label %14, label %12

12:                                               ; preds = %11
  %13 = call i32 @posix_memalign(ptr noundef nonnull %4, i64 noundef 16, i64 noundef %8) #21
  %.not.i.i = icmp eq i32 %13, 0
  %.pre11.i.i = load ptr, ptr %4, align 8
  br i1 %.not.i.i, label %av_malloc.exit.i, label %av_malloc.exit.thread.i

14:                                               ; preds = %11
  call void @llvm.lifetime.start.p0(i64 8, ptr nonnull %3) #21
  store ptr null, ptr %3, align 8, !tbaa !4
  %15 = load atomic i64, ptr @max_alloc_size monotonic, align 8
  %16 = icmp eq i64 %15, 0
  br i1 %16, label %av_malloc.exit.i.i, label %17

17:                                               ; preds = %14
  %18 = call i32 @posix_memalign(ptr noundef nonnull %3, i64 noundef 16, i64 noundef 1) #21
  %.not.i.i.i = icmp eq i32 %18, 0
  %.pre.i.i = load ptr, ptr %3, align 8
  %spec.select12.i.i = select i1 %.not.i.i.i, ptr %.pre.i.i, ptr null
  br label %av_malloc.exit.i.i

av_malloc.exit.i.i:                               ; preds = %17, %14
  %.0.i.i.i = phi ptr [ null, %14 ], [ %spec.select12.i.i, %17 ]
  call void @llvm.lifetime.end.p0(i64 8, ptr nonnull %3) #21
  br label %av_malloc.exit.i

av_malloc.exit.thread.i:                          ; preds = %12, %7
  call void @llvm.lifetime.end.p0(i64 8, ptr nonnull %4) #21
  br label %av_mallocz.exit

av_malloc.exit.i:                                 ; preds = %av_malloc.exit.i.i, %12
  %.0.i.i = phi ptr [ %.0.i.i.i, %av_malloc.exit.i.i ], [ %.pre11.i.i, %12 ]
  call void @llvm.lifetime.end.p0(i64 8, ptr nonnull %4) #21
  %.not.i = icmp eq ptr %.0.i.i, null
  br i1 %.not.i, label %av_mallocz.exit, label %19

19:                                               ; preds = %av_malloc.exit.i
  call void @llvm.memset.p0.i64(ptr nonnull align 1 %.0.i.i, i8 0, i64 %8, i1 false)
  br label %av_mallocz.exit

av_mallocz.exit:                                  ; preds = %2, %19, %av_malloc.exit.i, %av_malloc.exit.thread.i
  %.0 = phi ptr [ null, %av_malloc.exit.thread.i ], [ %.0.i.i, %19 ], [ null, %av_malloc.exit.i ], [ null, %2 ]
  ret ptr %.0
}